target datalayout = "e-m:e-p270:32:32-p271:32:32-p272:64:64-i64:64-i128:128-f80:128-n8:16:32:64-S128"
target triple = "x86_64-pc-linux-gnu"

%struct.AVFormatContext = type { ptr, ptr, ptr, ptr, ptr, i32, i32, ptr, i32, ptr, i32, ptr, ptr, i64, i64, i64, i32, i32, i32, i64, i64, ptr, i32, i32, ptr, i32, i32, i32, i32, ptr, i64, i32, i32, %struct.AVIOInterruptCB, i32, i32, i32, i32, i64, i32, i32, i32, i32, i32, i32, i32, i32, i32, i32, i32, i32, i64, i32, i32, i32, i32, i32, ptr, ptr, ptr, ptr, i32, ptr, ptr, ptr, ptr, i32, ptr, ptr, i64, ptr, ptr, ptr, i64 }
%struct.AVIOInterruptCB = type { ptr, ptr }
%struct.MOVMuxContext = type { ptr, i32, i64, i32, i32, i32, i32, i64, i64, ptr, i32, i32, i32, i32, i32, i32, i32, i32, i32, i32, i32, ptr, i32, i32, i32, i64, ptr, i32, ptr, ptr, i32, float, i32, i32, ptr, i32, ptr, i32, ptr, i32, i32, i32, i32, i32, i32, i32, i32, i32, [2 x i64], [2 x i32], i32, i32 }
%struct.MOVTrack = type { i32, i32, i32, i32, i64, i64, i32, i64, i64, i64, i32, i32, i32, i32, i32, i32, i32, ptr, ptr, i32, i32, i32, ptr, ptr, ptr, i32, i32, i32, i32, i32, i64, i64, i64, i32, i64, i32, i32, ptr, i32, i64, i32, i64, i32, i32, %struct.HintSampleQueue, ptr, ptr, i64, i32, i32, i32, ptr, i32, %struct.anon, ptr, %struct.MOVMuxCencContext, [256 x i32], i32, i32, i32, %struct.PacketList, ptr, i32, i32, ptr }
%struct.HintSampleQueue = type { i32, i32, ptr }
%struct.anon = type { i32, i32, i32, i32, i32, i32, i32 }
%struct.MOVMuxCencContext = type { ptr, ptr, i64, i64, i32, i32, i16, i64, ptr, i64, ptr, i32, i32, ptr, %struct.CodedBitstreamFragment }
%struct.CodedBitstreamFragment = type { ptr, i64, i64, ptr, i32, i32, ptr }
%struct.PacketList = type { ptr, ptr }
%struct.MOVIentry = type { i64, i64, i64, i32, i32, i32, i32, i32, i32, %struct.AVProducerReferenceTime }
%struct.AVProducerReferenceTime = type { i64, i32 }

; Function Attrs: alwaysinline nounwind uwtable
define internal i64 @avio_tell(ptr noundef %0) #6 {
  %2 = alloca ptr, align 8
  store ptr %0, ptr %2, align 8, !tbaa !31
  %3 = load ptr, ptr %2, align 8, !tbaa !31
  %4 = call i64 @avio_seek(ptr noundef %3, i64 noundef 0, i32 noundef 1)
  ret i64 %4
}

; Function Attrs: nounwind uwtable
define internal i32 @mov_flush_fragment_interleaving(ptr noundef %0, ptr noundef %1) #0 {
  %3 = alloca i32, align 4
  %4 = alloca ptr, align 8
  %5 = alloca ptr, align 8
  %6 = alloca ptr, align 8
  %7 = alloca i32, align 4
  %8 = alloca i32, align 4
  %9 = alloca ptr, align 8
  %10 = alloca i32, align 4
  %11 = alloca i32, align 4
  %12 = alloca i32, align 4
  store ptr %0, ptr %4, align 8, !tbaa !4
  store ptr %1, ptr %5, align 8, !tbaa !47
  call void @llvm.lifetime.start.p0(i64 8, ptr %6) #14
  %13 = load ptr, ptr %4, align 8, !tbaa !4
  %14 = getelementptr inbounds nuw %struct.AVFormatContext, ptr %13, i32 0, i32 3
  %15 = load ptr, ptr %14, align 8, !tbaa !11
  store ptr %15, ptr %6, align 8, !tbaa !28
  call void @llvm.lifetime.start.p0(i64 4, ptr %7) #14
  call void @llvm.lifetime.start.p0(i64 4, ptr %8) #14
  call void @llvm.lifetime.start.p0(i64 8, ptr %9) #14
  call void @llvm.lifetime.start.p0(i64 4, ptr %10) #14
  call void @llvm.lifetime.start.p0(i64 4, ptr %11) #14
  %16 = load ptr, ptr %5, align 8, !tbaa !47
  %17 = getelementptr inbounds nuw %struct.MOVTrack, ptr %16, i32 0, i32 46
  %18 = load ptr, ptr %17, align 8, !tbaa !79
  %19 = icmp ne ptr %18, null
  br i1 %19, label %21, label %20

20:                                               ; preds = %2
  store i32 0, ptr %3, align 4
  store i32 1, ptr %12, align 4
  br label %81

21:                                               ; preds = %2
  %22 = load ptr, ptr %6, align 8, !tbaa !28
  %23 = getelementptr inbounds nuw %struct.MOVMuxContext, ptr %22, i32 0, i32 21
  %24 = load ptr, ptr %23, align 8, !tbaa !80
  %25 = icmp ne ptr %24, null
  br i1 %25, label %34, label %26

26:                                               ; preds = %21
  %27 = load ptr, ptr %6, align 8, !tbaa !28
  %28 = getelementptr inbounds nuw %struct.MOVMuxContext, ptr %27, i32 0, i32 21
  %29 = call i32 @avio_open_dyn_buf(ptr noundef %28)
  store i32 %29, ptr %7, align 4, !tbaa !32
  %30 = icmp slt i32 %29, 0
  br i1 %30, label %31, label %33

31:                                               ; preds = %26
  %32 = load i32, ptr %7, align 4, !tbaa !32
  store i32 %32, ptr %3, align 4
  store i32 1, ptr %12, align 4
  br label %81

33:                                               ; preds = %26
  br label %34

34:                                               ; preds = %33, %21
  %35 = load ptr, ptr %5, align 8, !tbaa !47
  %36 = getelementptr inbounds nuw %struct.MOVTrack, ptr %35, i32 0, i32 46
  %37 = load ptr, ptr %36, align 8, !tbaa !79
  %38 = call i32 @avio_get_dyn_buf(ptr noundef %37, ptr noundef %9)
  store i32 %38, ptr %8, align 4, !tbaa !32
  %39 = load ptr, ptr %6, align 8, !tbaa !28
  %40 = getelementptr inbounds nuw %struct.MOVMuxContext, ptr %39, i32 0, i32 21
  %41 = load ptr, ptr %40, align 8, !tbaa !80
  %42 = call i64 @avio_tell(ptr noundef %41)
  %43 = trunc i64 %42 to i32
  store i32 %43, ptr %11, align 4, !tbaa !32
  %44 = load ptr, ptr %6, align 8, !tbaa !28
  %45 = getelementptr inbounds nuw %struct.MOVMuxContext, ptr %44, i32 0, i32 21
  %46 = load ptr, ptr %45, align 8, !tbaa !80
  %47 = load ptr, ptr %9, align 8, !tbaa !38
  %48 = load i32, ptr %8, align 4, !tbaa !32
  call void @avio_write(ptr noundef %46, ptr noundef %47, i32 noundef %48)
  %49 = load ptr, ptr %5, align 8, !tbaa !47
  %50 = getelementptr inbounds nuw %struct.MOVTrack, ptr %49, i32 0, i32 46
  call void @ffio_free_dyn_buf(ptr noundef %50)
  %51 = load ptr, ptr %5, align 8, !tbaa !47
  %52 = getelementptr inbounds nuw %struct.MOVTrack, ptr %51, i32 0, i32 49
  %53 = load i32, ptr %52, align 4, !tbaa !78
  store i32 %53, ptr %10, align 4, !tbaa !32
  br label %54

54:                                               ; preds = %72, %34
  %55 = load i32, ptr %10, align 4, !tbaa !32
  %56 = load ptr, ptr %5, align 8, !tbaa !47
  %57 = getelementptr inbounds nuw %struct.MOVTrack, ptr %56, i32 0, i32 1
  %58 = load i32, ptr %57, align 4, !tbaa !77
  %59 = icmp slt i32 %55, %58
  br i1 %59, label %60, label %75

60:                                               ; preds = %54
  %61 = load i32, ptr %11, align 4, !tbaa !32
  %62 = sext i32 %61 to i64
  %63 = load ptr, ptr %5, align 8, !tbaa !47
  %64 = getelementptr inbounds nuw %struct.MOVTrack, ptr %63, i32 0, i32 23
  %65 = load ptr, ptr %64, align 8, !tbaa !105
  %66 = load i32, ptr %10, align 4, !tbaa !32
  %67 = sext i32 %66 to i64
  %68 = getelementptr inbounds %struct.MOVIentry, ptr %65, i64 %67
  %69 = getelementptr inbounds nuw %struct.MOVIentry, ptr %68, i32 0, i32 0
  %70 = load i64, ptr %69, align 8, !tbaa !107
  %71 = add i64 %70, %62
  store i64 %71, ptr %69, align 8, !tbaa !107
  br label %72

72:                                               ; preds = %60
  %73 = load i32, ptr %10, align 4, !tbaa !32
  %74 = add nsw i32 %73, 1
  store i32 %74, ptr %10, align 4, !tbaa !32
  br label %54, !llvm.loop !138

75:                                               ; preds = %54
  %76 = load ptr, ptr %5, align 8, !tbaa !47
  %77 = getelementptr inbounds nuw %struct.MOVTrack, ptr %76, i32 0, i32 1
  %78 = load i32, ptr %77, align 4, !tbaa !77
  %79 = load ptr, ptr %5, align 8, !tbaa !47
  %80 = getelementptr inbounds nuw %struct.MOVTrack, ptr %79, i32 0, i32 49
  store i32 %78, ptr %80, align 4, !tbaa !78
  store i32 0, ptr %3, align 4
  store i32 1, ptr %12, align 4
  br label %81

81:                                               ; preds = %75, %31, %20
  call void @llvm.lifetime.end.p0(i64 4, ptr %11) #14
  call void @llvm.lifetime.end.p0(i64 4, ptr %10) #14
  call void @llvm.lifetime.end.p0(i64 8, ptr %9) #14
  call void @llvm.lifetime.end.p0(i64 4, ptr %8) #14
  call void @llvm.lifetime.end.p0(i64 4, ptr %7) #14
  call void @llvm.lifetime.end.p0(i64 8, ptr %6) #14
  %82 = load i32, ptr %3, align 4
  ret i32 %82
}