; Function Attrs: nounwind uwtable
define internal fastcc range(i32 -2147483648, 1) i32 @mov_flush_fragment_interleaving(ptr %.24.val, ptr noundef %0) unnamed_addr #0 {
  %2 = alloca ptr, align 8
  call void @llvm.lifetime.start.p0(i64 8, ptr nonnull %2) #16
  %3 = getelementptr inbounds nuw i8, ptr %0, i64 296
  %4 = load ptr, ptr %3, align 8, !tbaa !81
  %.not = icmp eq ptr %4, null
  br i1 %.not, label %31, label %5

5:                                                ; preds = %1
  %6 = getelementptr inbounds nuw i8, ptr %.24.val, i64 112
  %7 = load ptr, ptr %6, align 8, !tbaa !82
  %.not22 = icmp eq ptr %7, null
  br i1 %.not22, label %8, label %11

8:                                                ; preds = %5
  %9 = tail call i32 @avio_open_dyn_buf(ptr noundef nonnull %6) #16
  %10 = icmp slt i32 %9, 0
  br i1 %10, label %31, label %._crit_edge3

._crit_edge3:                                     ; preds = %8
  %.pre = load ptr, ptr %3, align 8, !tbaa !81
  br label %11

11:                                               ; preds = %._crit_edge3, %5
  %12 = phi ptr [ %.pre, %._crit_edge3 ], [ %4, %5 ]
  %13 = call i32 @avio_get_dyn_buf(ptr noundef %12, ptr noundef nonnull %2) #16
  %14 = load ptr, ptr %6, align 8, !tbaa !82
  %15 = call i64 @avio_seek(ptr noundef %14, i64 noundef 0, i32 noundef 1) #16
  %16 = load ptr, ptr %6, align 8, !tbaa !82
  %17 = load ptr, ptr %2, align 8, !tbaa !31
  call void @avio_write(ptr noundef %16, ptr noundef %17, i32 noundef %13) #16
  call void @ffio_free_dyn_buf(ptr noundef nonnull %3) #16
  %18 = getelementptr inbounds nuw i8, ptr %0, i64 316
  %19 = load i32, ptr %18, align 4, !tbaa !80
  %20 = getelementptr inbounds nuw i8, ptr %0, i64 4
  %21 = load i32, ptr %20, align 4, !tbaa !63
  %22 = icmp slt i32 %19, %21
  br i1 %22, label %.lr.ph, label %._crit_edge

.lr.ph:                                           ; preds = %11
  %sext = shl i64 %15, 32
  %23 = ashr exact i64 %sext, 32
  %24 = getelementptr inbounds nuw i8, ptr %0, i64 136
  %25 = load ptr, ptr %24, align 8, !tbaa !64
  %26 = sext i32 %19 to i64
  %wide.trip.count = sext i32 %21 to i64
  br label %27

27:                                               ; preds = %.lr.ph, %27
  %indvars.iv = phi i64 [ %26, %.lr.ph ], [ %indvars.iv.next, %27 ]
  %28 = getelementptr inbounds %struct.MOVIentry, ptr %25, i64 %indvars.iv
  %29 = load i64, ptr %28, align 8, !tbaa !141
  %30 = add i64 %29, %23
  store i64 %30, ptr %28, align 8, !tbaa !141
  %indvars.iv.next = add nsw i64 %indvars.iv, 1
  %exitcond.not = icmp eq i64 %indvars.iv.next, %wide.trip.count
  br i1 %exitcond.not, label %._crit_edge, label %27, !llvm.loop !170

._crit_edge:                                      ; preds = %27, %11
  store i32 %21, ptr %18, align 4, !tbaa !80
  br label %31

31:                                               ; preds = %8, %1, %._crit_edge
  %.0 = phi i32 [ 0, %._crit_edge ], [ 0, %1 ], [ %9, %8 ]
  call void @llvm.lifetime.end.p0(i64 8, ptr nonnull %2) #16
  ret i32 %.0
}